target datalayout = "e-m:e-p270:32:32-p271:32:32-p272:64:64-i64:64-i128:128-f80:128-n8:16:32:64-S128"
target triple = "x86_64-pc-linux-gnu"

%struct.PortalData = type { ptr, ptr, ptr, ptr, ptr, i32, i32, i32, ptr, i32, %struct.QueryCompletion, ptr, ptr, ptr, ptr, i32, i32, i32, i8, i8, ptr, ptr, ptr, ptr, ptr, ptr, ptr, i8, i8, i64, i64, i8 }
%struct.QueryCompletion = type { i32, i64 }

@ActivePortal = dso_local global ptr null, align 8
@.str.1 = private unnamed_addr constant [9 x i8] c"pquery.c\00", align 1
@.str.7 = private unnamed_addr constant [55 x i8] c"cannot execute SQL without an outer snapshot or portal\00", align 1
@__func__.EnsurePortalSnapshotExists = private unnamed_addr constant [27 x i8] c"EnsurePortalSnapshotExists\00", align 1

; Function Attrs: nounwind uwtable
define dso_local void @EnsurePortalSnapshotExists() #0 {
  %1 = alloca ptr, align 8
  %2 = alloca i32, align 4
  call void @llvm.lifetime.start.p0(i64 8, ptr %1) #10
  %3 = call zeroext i1 @ActiveSnapshotSet()
  br i1 %3, label %4, label %5

4:                                                ; preds = %0
  store i32 1, ptr %2, align 4
  br label %34

5:                                                ; preds = %0
  %6 = load ptr, ptr @ActivePortal, align 8
  store ptr %6, ptr %1, align 8
  %7 = load ptr, ptr %1, align 8
  %8 = icmp eq ptr %7, null
  %9 = zext i1 %8 to i32
  %10 = icmp ne i32 %9, 0
  %11 = zext i1 %10 to i32
  %12 = sext i32 %11 to i64
  %13 = call i64 @llvm.expect.i64(i64 %12, i64 0)
  %14 = icmp ne i64 %13, 0
  br i1 %14, label %15, label %26

15:                                               ; preds = %5
  br label %16

16:                                               ; preds = %15
  br i1 true, label %17, label %19

17:                                               ; preds = %16
  %18 = call zeroext i1 @errstart_cold(i32 noundef 21, ptr noundef null) #11
  br i1 %18, label %21, label %23

19:                                               ; preds = %16
  %20 = call zeroext i1 @errstart(i32 noundef 21, ptr noundef null)
  br i1 %20, label %21, label %23

21:                                               ; preds = %19, %17
  %22 = call i32 (ptr, ...) @errmsg_internal(ptr noundef @.str.7)
  call void @errfinish(ptr noundef @.str.1, i32 noundef 1786, ptr noundef @__func__.EnsurePortalSnapshotExists)
  br label %23

23:                                               ; preds = %21, %19, %17
  unreachable

24:                                               ; No predecessors!
  br label %25

25:                                               ; preds = %24
  br label %26

26:                                               ; preds = %25, %5
  %27 = call ptr @GetTransactionSnapshot()
  %28 = load ptr, ptr %1, align 8
  %29 = getelementptr inbounds nuw %struct.PortalData, ptr %28, i32 0, i32 7
  %30 = load i32, ptr %29, align 8
  call void @PushActiveSnapshotWithLevel(ptr noundef %27, i32 noundef %30)
  %31 = call ptr @GetActiveSnapshot()
  %32 = load ptr, ptr %1, align 8
  %33 = getelementptr inbounds nuw %struct.PortalData, ptr %32, i32 0, i32 23
  store ptr %31, ptr %33, align 8
  store i32 0, ptr %2, align 4
  br label %34

34:                                               ; preds = %26, %4
  call void @llvm.lifetime.end.p0(i64 8, ptr %1) #10
  %35 = load i32, ptr %2, align 4
  switch i32 %35, label %37 [
    i32 0, label %36
    i32 1, label %36
  ]

36:                                               ; preds = %34, %34
  ret void

37:                                               ; preds = %34
  unreachable
}