; Function Attrs: nounwind uwtable
define dso_local void @EnsurePortalSnapshotExists() local_unnamed_addr #0 {
  %1 = tail call zeroext i1 @ActiveSnapshotSet() #11
  br i1 %1, label %14, label %2

2:                                                ; preds = %0
  %3 = load ptr, ptr @ActivePortal, align 8
  %4 = icmp eq ptr %3, null
  br i1 %4, label %5, label %8, !prof !10

5:                                                ; preds = %2
  %6 = tail call zeroext i1 @errstart_cold(i32 noundef 21, ptr noundef null) #12
  tail call void @llvm.assume(i1 %6)
  %7 = tail call i32 (ptr, ...) @errmsg_internal(ptr noundef nonnull @.str.7) #11
  tail call void @errfinish(ptr noundef nonnull @.str.1, i32 noundef 1786, ptr noundef nonnull @__func__.EnsurePortalSnapshotExists) #11
  unreachable

8:                                                ; preds = %2
  %9 = tail call ptr @GetTransactionSnapshot() #11
  %10 = getelementptr inbounds nuw i8, ptr %3, i64 48
  %11 = load i32, ptr %10, align 8
  tail call void @PushActiveSnapshotWithLevel(ptr noundef %9, i32 noundef %11) #11
  %12 = tail call ptr @GetActiveSnapshot() #11
  %13 = getelementptr inbounds nuw i8, ptr %3, i64 160
  store ptr %12, ptr %13, align 8
  br label %14

14:                                               ; preds = %0, %8
  ret void
}